#include <math.h>
#include <stdio.h>
#include <stdlib.h>
#include <string.h>

int main()
{
	int m,a[20000],i,j,sign=0;
	
	for(i=1;i<=20000;i++)
		a[i]=-10000;
		scanf("%d",&m);
	for(i=2;i<=m;i++)
	{
		{
			for(j=2;j<i;j++)
			{
				if(i%j==0)
				sign+=1;
			}
		}
			if(sign>0)
				sign=0;
			else a[i]=i;
	}
	for(i=2;i<m;i++)
		for(j=i;j<m;j++)
			if(a[j]+a[i]==m)
				printf("%d %d\n",i,j);
	return 0;
}

